target datalayout = "e-m:e-p270:32:32-p271:32:32-p272:64:64-i64:64-i128:128-f80:128-n8:16:32:64-S128"
target triple = "x86_64-pc-linux-gnu"

%struct.Jpeg2000T1Context = type { [6144 x i32], [6156 x i16], %struct.MqcState, i32 }
%struct.MqcState = type { ptr, ptr, i32, i32, i32, [19 x i8], i32 }

; Function Attrs: nounwind uwtable
define void @ff_jpeg2000_set_significance(ptr noundef %0, i32 noundef %1, i32 noundef %2, i32 noundef %3) #0 {
  %5 = alloca ptr, align 8
  %6 = alloca i32, align 4
  %7 = alloca i32, align 4
  %8 = alloca i32, align 4
  store ptr %0, ptr %5, align 8, !tbaa !25
  store i32 %1, ptr %6, align 4, !tbaa !9
  store i32 %2, ptr %7, align 4, !tbaa !9
  store i32 %3, ptr %8, align 4, !tbaa !9
  %9 = load i32, ptr %6, align 4, !tbaa !9
  %10 = add nsw i32 %9, 1
  store i32 %10, ptr %6, align 4, !tbaa !9
  %11 = load i32, ptr %7, align 4, !tbaa !9
  %12 = add nsw i32 %11, 1
  store i32 %12, ptr %7, align 4, !tbaa !9
  %13 = load ptr, ptr %5, align 8, !tbaa !25
  %14 = getelementptr inbounds nuw %struct.Jpeg2000T1Context, ptr %13, i32 0, i32 1
  %15 = load i32, ptr %7, align 4, !tbaa !9
  %16 = load ptr, ptr %5, align 8, !tbaa !25
  %17 = getelementptr inbounds nuw %struct.Jpeg2000T1Context, ptr %16, i32 0, i32 3
  %18 = load i32, ptr %17, align 8, !tbaa !27
  %19 = mul nsw i32 %15, %18
  %20 = load i32, ptr %6, align 4, !tbaa !9
  %21 = add nsw i32 %19, %20
  %22 = sext i32 %21 to i64
  %23 = getelementptr inbounds [6156 x i16], ptr %14, i64 0, i64 %22
  %24 = load i16, ptr %23, align 2, !tbaa !31
  %25 = zext i16 %24 to i32
  %26 = or i32 %25, 8192
  %27 = trunc i32 %26 to i16
  store i16 %27, ptr %23, align 2, !tbaa !31
  %28 = load i32, ptr %8, align 4, !tbaa !9
  %29 = icmp ne i32 %28, 0
  br i1 %29, label %30, label %95

30:                                               ; preds = %4
  %31 = load ptr, ptr %5, align 8, !tbaa !25
  %32 = getelementptr inbounds nuw %struct.Jpeg2000T1Context, ptr %31, i32 0, i32 1
  %33 = load i32, ptr %7, align 4, !tbaa !9
  %34 = load ptr, ptr %5, align 8, !tbaa !25
  %35 = getelementptr inbounds nuw %struct.Jpeg2000T1Context, ptr %34, i32 0, i32 3
  %36 = load i32, ptr %35, align 8, !tbaa !27
  %37 = mul nsw i32 %33, %36
  %38 = load i32, ptr %6, align 4, !tbaa !9
  %39 = add nsw i32 %37, %38
  %40 = add nsw i32 %39, 1
  %41 = sext i32 %40 to i64
  %42 = getelementptr inbounds [6156 x i16], ptr %32, i64 0, i64 %41
  %43 = load i16, ptr %42, align 2, !tbaa !31
  %44 = zext i16 %43 to i32
  %45 = or i32 %44, 1028
  %46 = trunc i32 %45 to i16
  store i16 %46, ptr %42, align 2, !tbaa !31
  %47 = load ptr, ptr %5, align 8, !tbaa !25
  %48 = getelementptr inbounds nuw %struct.Jpeg2000T1Context, ptr %47, i32 0, i32 1
  %49 = load i32, ptr %7, align 4, !tbaa !9
  %50 = load ptr, ptr %5, align 8, !tbaa !25
  %51 = getelementptr inbounds nuw %struct.Jpeg2000T1Context, ptr %50, i32 0, i32 3
  %52 = load i32, ptr %51, align 8, !tbaa !27
  %53 = mul nsw i32 %49, %52
  %54 = load i32, ptr %6, align 4, !tbaa !9
  %55 = add nsw i32 %53, %54
  %56 = sub nsw i32 %55, 1
  %57 = sext i32 %56 to i64
  %58 = getelementptr inbounds [6156 x i16], ptr %48, i64 0, i64 %57
  %59 = load i16, ptr %58, align 2, !tbaa !31
  %60 = zext i16 %59 to i32
  %61 = or i32 %60, 2050
  %62 = trunc i32 %61 to i16
  store i16 %62, ptr %58, align 2, !tbaa !31
  %63 = load ptr, ptr %5, align 8, !tbaa !25
  %64 = getelementptr inbounds nuw %struct.Jpeg2000T1Context, ptr %63, i32 0, i32 1
  %65 = load i32, ptr %7, align 4, !tbaa !9
  %66 = add nsw i32 %65, 1
  %67 = load ptr, ptr %5, align 8, !tbaa !25
  %68 = getelementptr inbounds nuw %struct.Jpeg2000T1Context, ptr %67, i32 0, i32 3
  %69 = load i32, ptr %68, align 8, !tbaa !27
  %70 = mul nsw i32 %66, %69
  %71 = load i32, ptr %6, align 4, !tbaa !9
  %72 = add nsw i32 %70, %71
  %73 = sext i32 %72 to i64
  %74 = getelementptr inbounds [6156 x i16], ptr %64, i64 0, i64 %73
  %75 = load i16, ptr %74, align 2, !tbaa !31
  %76 = zext i16 %75 to i32
  %77 = or i32 %76, 257
  %78 = trunc i32 %77 to i16
  store i16 %78, ptr %74, align 2, !tbaa !31
  %79 = load ptr, ptr %5, align 8, !tbaa !25
  %80 = getelementptr inbounds nuw %struct.Jpeg2000T1Context, ptr %79, i32 0, i32 1
  %81 = load i32, ptr %7, align 4, !tbaa !9
  %82 = sub nsw i32 %81, 1
  %83 = load ptr, ptr %5, align 8, !tbaa !25
  %84 = getelementptr inbounds nuw %struct.Jpeg2000T1Context, ptr %83, i32 0, i32 3
  %85 = load i32, ptr %84, align 8, !tbaa !27
  %86 = mul nsw i32 %82, %85
  %87 = load i32, ptr %6, align 4, !tbaa !9
  %88 = add nsw i32 %86, %87
  %89 = sext i32 %88 to i64
  %90 = getelementptr inbounds [6156 x i16], ptr %80, i64 0, i64 %89
  %91 = load i16, ptr %90, align 2, !tbaa !31
  %92 = zext i16 %91 to i32
  %93 = or i32 %92, 520
  %94 = trunc i32 %93 to i16
  store i16 %94, ptr %90, align 2, !tbaa !31
  br label %160

95:                                               ; preds = %4
  %96 = load ptr, ptr %5, align 8, !tbaa !25
  %97 = getelementptr inbounds nuw %struct.Jpeg2000T1Context, ptr %96, i32 0, i32 1
  %98 = load i32, ptr %7, align 4, !tbaa !9
  %99 = load ptr, ptr %5, align 8, !tbaa !25
  %100 = getelementptr inbounds nuw %struct.Jpeg2000T1Context, ptr %99, i32 0, i32 3
  %101 = load i32, ptr %100, align 8, !tbaa !27
  %102 = mul nsw i32 %98, %101
  %103 = load i32, ptr %6, align 4, !tbaa !9
  %104 = add nsw i32 %102, %103
  %105 = add nsw i32 %104, 1
  %106 = sext i32 %105 to i64
  %107 = getelementptr inbounds [6156 x i16], ptr %97, i64 0, i64 %106
  %108 = load i16, ptr %107, align 2, !tbaa !31
  %109 = zext i16 %108 to i32
  %110 = or i32 %109, 4
  %111 = trunc i32 %110 to i16
  store i16 %111, ptr %107, align 2, !tbaa !31
  %112 = load ptr, ptr %5, align 8, !tbaa !25
  %113 = getelementptr inbounds nuw %struct.Jpeg2000T1Context, ptr %112, i32 0, i32 1
  %114 = load i32, ptr %7, align 4, !tbaa !9
  %115 = load ptr, ptr %5, align 8, !tbaa !25
  %116 = getelementptr inbounds nuw %struct.Jpeg2000T1Context, ptr %115, i32 0, i32 3
  %117 = load i32, ptr %116, align 8, !tbaa !27
  %118 = mul nsw i32 %114, %117
  %119 = load i32, ptr %6, align 4, !tbaa !9
  %120 = add nsw i32 %118, %119
  %121 = sub nsw i32 %120, 1
  %122 = sext i32 %121 to i64
  %123 = getelementptr inbounds [6156 x i16], ptr %113, i64 0, i64 %122
  %124 = load i16, ptr %123, align 2, !tbaa !31
  %125 = zext i16 %124 to i32
  %126 = or i32 %125, 2
  %127 = trunc i32 %126 to i16
  store i16 %127, ptr %123, align 2, !tbaa !31
  %128 = load ptr, ptr %5, align 8, !tbaa !25
  %129 = getelementptr inbounds nuw %struct.Jpeg2000T1Context, ptr %128, i32 0, i32 1
  %130 = load i32, ptr %7, align 4, !tbaa !9
  %131 = add nsw i32 %130, 1
  %132 = load ptr, ptr %5, align 8, !tbaa !25
  %133 = getelementptr inbounds nuw %struct.Jpeg2000T1Context, ptr %132, i32 0, i32 3
  %134 = load i32, ptr %133, align 8, !tbaa !27
  %135 = mul nsw i32 %131, %134
  %136 = load i32, ptr %6, align 4, !tbaa !9
  %137 = add nsw i32 %135, %136
  %138 = sext i32 %137 to i64
  %139 = getelementptr inbounds [6156 x i16], ptr %129, i64 0, i64 %138
  %140 = load i16, ptr %139, align 2, !tbaa !31
  %141 = zext i16 %140 to i32
  %142 = or i32 %141, 1
  %143 = trunc i32 %142 to i16
  store i16 %143, ptr %139, align 2, !tbaa !31
  %144 = load ptr, ptr %5, align 8, !tbaa !25
  %145 = getelementptr inbounds nuw %struct.Jpeg2000T1Context, ptr %144, i32 0, i32 1
  %146 = load i32, ptr %7, align 4, !tbaa !9
  %147 = sub nsw i32 %146, 1
  %148 = load ptr, ptr %5, align 8, !tbaa !25
  %149 = getelementptr inbounds nuw %struct.Jpeg2000T1Context, ptr %148, i32 0, i32 3
  %150 = load i32, ptr %149, align 8, !tbaa !27
  %151 = mul nsw i32 %147, %150
  %152 = load i32, ptr %6, align 4, !tbaa !9
  %153 = add nsw i32 %151, %152
  %154 = sext i32 %153 to i64
  %155 = getelementptr inbounds [6156 x i16], ptr %145, i64 0, i64 %154
  %156 = load i16, ptr %155, align 2, !tbaa !31
  %157 = zext i16 %156 to i32
  %158 = or i32 %157, 8
  %159 = trunc i32 %158 to i16
  store i16 %159, ptr %155, align 2, !tbaa !31
  br label %160

160:                                              ; preds = %95, %30
  %161 = load ptr, ptr %5, align 8, !tbaa !25
  %162 = getelementptr inbounds nuw %struct.Jpeg2000T1Context, ptr %161, i32 0, i32 1
  %163 = load i32, ptr %7, align 4, !tbaa !9
  %164 = add nsw i32 %163, 1
  %165 = load ptr, ptr %5, align 8, !tbaa !25
  %166 = getelementptr inbounds nuw %struct.Jpeg2000T1Context, ptr %165, i32 0, i32 3
  %167 = load i32, ptr %166, align 8, !tbaa !27
  %168 = mul nsw i32 %164, %167
  %169 = load i32, ptr %6, align 4, !tbaa !9
  %170 = add nsw i32 %168, %169
  %171 = add nsw i32 %170, 1
  %172 = sext i32 %171 to i64
  %173 = getelementptr inbounds [6156 x i16], ptr %162, i64 0, i64 %172
  %174 = load i16, ptr %173, align 2, !tbaa !31
  %175 = zext i16 %174 to i32
  %176 = or i32 %175, 32
  %177 = trunc i32 %176 to i16
  store i16 %177, ptr %173, align 2, !tbaa !31
  %178 = load ptr, ptr %5, align 8, !tbaa !25
  %179 = getelementptr inbounds nuw %struct.Jpeg2000T1Context, ptr %178, i32 0, i32 1
  %180 = load i32, ptr %7, align 4, !tbaa !9
  %181 = add nsw i32 %180, 1
  %182 = load ptr, ptr %5, align 8, !tbaa !25
  %183 = getelementptr inbounds nuw %struct.Jpeg2000T1Context, ptr %182, i32 0, i32 3
  %184 = load i32, ptr %183, align 8, !tbaa !27
  %185 = mul nsw i32 %181, %184
  %186 = load i32, ptr %6, align 4, !tbaa !9
  %187 = add nsw i32 %185, %186
  %188 = sub nsw i32 %187, 1
  %189 = sext i32 %188 to i64
  %190 = getelementptr inbounds [6156 x i16], ptr %179, i64 0, i64 %189
  %191 = load i16, ptr %190, align 2, !tbaa !31
  %192 = zext i16 %191 to i32
  %193 = or i32 %192, 16
  %194 = trunc i32 %193 to i16
  store i16 %194, ptr %190, align 2, !tbaa !31
  %195 = load ptr, ptr %5, align 8, !tbaa !25
  %196 = getelementptr inbounds nuw %struct.Jpeg2000T1Context, ptr %195, i32 0, i32 1
  %197 = load i32, ptr %7, align 4, !tbaa !9
  %198 = sub nsw i32 %197, 1
  %199 = load ptr, ptr %5, align 8, !tbaa !25
  %200 = getelementptr inbounds nuw %struct.Jpeg2000T1Context, ptr %199, i32 0, i32 3
  %201 = load i32, ptr %200, align 8, !tbaa !27
  %202 = mul nsw i32 %198, %201
  %203 = load i32, ptr %6, align 4, !tbaa !9
  %204 = add nsw i32 %202, %203
  %205 = add nsw i32 %204, 1
  %206 = sext i32 %205 to i64
  %207 = getelementptr inbounds [6156 x i16], ptr %196, i64 0, i64 %206
  %208 = load i16, ptr %207, align 2, !tbaa !31
  %209 = zext i16 %208 to i32
  %210 = or i32 %209, 128
  %211 = trunc i32 %210 to i16
  store i16 %211, ptr %207, align 2, !tbaa !31
  %212 = load ptr, ptr %5, align 8, !tbaa !25
  %213 = getelementptr inbounds nuw %struct.Jpeg2000T1Context, ptr %212, i32 0, i32 1
  %214 = load i32, ptr %7, align 4, !tbaa !9
  %215 = sub nsw i32 %214, 1
  %216 = load ptr, ptr %5, align 8, !tbaa !25
  %217 = getelementptr inbounds nuw %struct.Jpeg2000T1Context, ptr %216, i32 0, i32 3
  %218 = load i32, ptr %217, align 8, !tbaa !27
  %219 = mul nsw i32 %215, %218
  %220 = load i32, ptr %6, align 4, !tbaa !9
  %221 = add nsw i32 %219, %220
  %222 = sub nsw i32 %221, 1
  %223 = sext i32 %222 to i64
  %224 = getelementptr inbounds [6156 x i16], ptr %213, i64 0, i64 %223
  %225 = load i16, ptr %224, align 2, !tbaa !31
  %226 = zext i16 %225 to i32
  %227 = or i32 %226, 64
  %228 = trunc i32 %227 to i16
  store i16 %228, ptr %224, align 2, !tbaa !31
  ret void
}