; Function Attrs: mustprogress nofree norecurse nosync nounwind willreturn memory(argmem: readwrite) uwtable
define void @ff_jpeg2000_set_significance(ptr noundef captures(none) %0, i32 noundef %1, i32 noundef %2, i32 noundef %3) local_unnamed_addr #4 {
  %5 = add nsw i32 %1, 1
  %6 = add nsw i32 %2, 1
  %7 = getelementptr inbounds nuw i8, ptr %0, i64 24576
  %8 = getelementptr inbounds nuw i8, ptr %0, i64 36944
  %9 = load i32, ptr %8, align 8, !tbaa !22
  %10 = mul nsw i32 %9, %6
  %11 = add nsw i32 %10, %5
  %12 = sext i32 %11 to i64
  %13 = getelementptr inbounds [6156 x i16], ptr %7, i64 0, i64 %12
  %14 = load i16, ptr %13, align 2, !tbaa !26
  %15 = or i16 %14, 8192
  store i16 %15, ptr %13, align 2, !tbaa !26
  %.not = icmp eq i32 %3, 0
  %16 = add nsw i32 %11, 1
  %17 = sext i32 %16 to i64
  %18 = getelementptr inbounds [6156 x i16], ptr %7, i64 0, i64 %17
  %19 = load i16, ptr %18, align 2, !tbaa !26
  %20 = add i32 %10, %1
  %21 = sext i32 %20 to i64
  %22 = getelementptr inbounds [6156 x i16], ptr %7, i64 0, i64 %21
  %23 = add nsw i32 %2, 2
  %24 = mul nsw i32 %9, %23
  %25 = add nsw i32 %24, %5
  %26 = sext i32 %25 to i64
  %27 = getelementptr inbounds [6156 x i16], ptr %7, i64 0, i64 %26
  %28 = mul nsw i32 %9, %2
  %29 = add nsw i32 %28, %5
  %30 = sext i32 %29 to i64
  %31 = getelementptr inbounds [6156 x i16], ptr %7, i64 0, i64 %30
  %. = select i1 %.not, i16 4, i16 1028
  %.63 = select i1 %.not, i16 2, i16 2050
  %.64 = select i1 %.not, i16 1, i16 257
  %.65 = select i1 %.not, i16 8, i16 520
  %32 = or i16 %19, %.
  store i16 %32, ptr %18, align 2, !tbaa !26
  %33 = load i16, ptr %22, align 2, !tbaa !26
  %34 = or i16 %33, %.63
  store i16 %34, ptr %22, align 2, !tbaa !26
  %35 = load i16, ptr %27, align 2, !tbaa !26
  %36 = or i16 %35, %.64
  store i16 %36, ptr %27, align 2, !tbaa !26
  %37 = load i16, ptr %31, align 2, !tbaa !26
  %38 = or i16 %37, %.65
  store i16 %38, ptr %31, align 2, !tbaa !26
  %39 = add i32 %1, 2
  %40 = add i32 %39, %24
  %41 = sext i32 %40 to i64
  %42 = getelementptr inbounds [6156 x i16], ptr %7, i64 0, i64 %41
  %43 = load i16, ptr %42, align 2, !tbaa !26
  %44 = or i16 %43, 32
  store i16 %44, ptr %42, align 2, !tbaa !26
  %45 = add i32 %24, %1
  %46 = sext i32 %45 to i64
  %47 = getelementptr inbounds [6156 x i16], ptr %7, i64 0, i64 %46
  %48 = load i16, ptr %47, align 2, !tbaa !26
  %49 = or i16 %48, 16
  store i16 %49, ptr %47, align 2, !tbaa !26
  %50 = add i32 %39, %28
  %51 = sext i32 %50 to i64
  %52 = getelementptr inbounds [6156 x i16], ptr %7, i64 0, i64 %51
  %53 = load i16, ptr %52, align 2, !tbaa !26
  %54 = or i16 %53, 128
  store i16 %54, ptr %52, align 2, !tbaa !26
  %55 = add i32 %28, %1
  %56 = sext i32 %55 to i64
  %57 = getelementptr inbounds [6156 x i16], ptr %7, i64 0, i64 %56
  %58 = load i16, ptr %57, align 2, !tbaa !26
  %59 = or i16 %58, 64
  store i16 %59, ptr %57, align 2, !tbaa !26
  ret void
}